; Function Attrs: mustprogress uwtable
define ptr @proj_context_get_url_endpoint(ptr noundef %0) local_unnamed_addr #0 {
  %2 = icmp eq ptr %0, null
  br i1 %2, label %3, label %5

3:                                                ; preds = %1
  %4 = tail call noundef ptr @_Z18pj_get_default_ctxv()
  br label %5

5:                                                ; preds = %3, %1
  %.0 = phi ptr [ %4, %3 ], [ %0, %1 ]
  %6 = getelementptr inbounds nuw i8, ptr %.0, i64 392
  %7 = load i64, ptr %6, align 8, !tbaa !14
  %8 = icmp eq i64 %7, 0
  br i1 %8, label %9, label %10

9:                                                ; preds = %5
  tail call void @_Z11pj_load_iniP6pj_ctx(ptr noundef nonnull %.0)
  br label %10

10:                                               ; preds = %5, %9
  %11 = getelementptr inbounds nuw i8, ptr %.0, i64 384
  %.06 = load ptr, ptr %11, align 8, !tbaa !11
  ret ptr %.06
}